(dp0
I0
(S'dvd'
p1
S'books'
p2
S'all'
p3
tp4
sI1
(g1
S'kitchen'
p5
g3
tp6
sI2
(g1
S'electronics'
p7
g3
tp8
sI3
(g2
g1
g3
tp9
sI4
(g2
g5
g3
tp10
sI5
(g2
g7
g3
tp11
sI6
(g5
g1
g3
tp12
sI7
(g5
g2
g3
tp13
sI8
(g5
g7
g3
tp14
sI9
(g7
g1
g3
tp15
sI10
(g7
g2
g3
tp16
sI11
(g7
g5
g3
tp17
sI12
(g1
g2
S'small'
p18
tp19
sI13
(g1
g5
g18
tp20
sI14
(g1
g7
g18
tp21
sI15
(g2
g1
g18
tp22
sI16
(g2
g5
g18
tp23
sI17
(g2
g7
g18
tp24
sI18
(g5
g1
g18
tp25
sI19
(g5
g2
g18
tp26
sI20
(g5
g7
g18
tp27
sI21
(g7
g1
g18
tp28
sI22
(g7
g2
g18
tp29
sI23
(g7
g5
g18
tp30
s.